ccopy_reg
_reconstructor
p0
(cMC_Perceptron
MC_Perceptron
p1
c__builtin__
object
p2
Ntp3
Rp4
(dp5
S'IT'
p6
I10
sS'w'
p7
(dp8
I8
(dp9
I1
F10.0
sI3
F-12.0
sI4
F5.0
sI5
F8.0
sI6
F7.0
sI7
F3.0
sI8
F-14.0
sI9
F-21.0
sI10
F-3.0
sI11
F6.0
sI12
F-1.0
ssI2
(dp10
I1
F0.0
sI3
F11.0
sI4
F-6.0
sI5
F3.0
sI6
F-33.0
sI7
F3.0
sI8
F14.0
sI9
F15.0
sI10
F11.0
sI11
F-4.0
sI12
F4.0
ssI11
(dp11
I1
F-10.0
sI3
F1.0
sI4
F1.0
sI5
F-11.0
sI6
F26.0
sI7
F-6.0
sI8
F0.0
sI9
F6.0
sI10
F-8.0
sI11
F-2.0
sI12
F-3.0
sssb.