ccopy_reg
_reconstructor
p0
(cMC_Perceptron
MC_Perceptron
p1
c__builtin__
object
p2
Ntp3
Rp4
(dp5
S'IT'
p6
I10
sS'w'
p7
(dp8
I8
(dp9
I1
F-8.0
sI3
F10.0
sI4
F2.0
sI5
F10.0
sI6
F1.0
sI7
F-5.0
sI8
F5.0
sI9
F0.0
sI10
F3.0
sI11
F-1.0
sI12
F-4.0
ssI2
(dp10
I1
F14.0
sI3
F-10.0
sI4
F-3.0
sI5
F30.0
sI6
F-45.0
sI7
F6.0
sI8
F-3.0
sI9
F9.0
sI10
F0.0
sI11
F8.0
sI12
F14.0
ssI11
(dp11
I1
F-6.0
sI3
F0.0
sI4
F1.0
sI5
F-40.0
sI6
F44.0
sI7
F-1.0
sI8
F-2.0
sI9
F-9.0
sI10
F-3.0
sI11
F-7.0
sI12
F-10.0
sssb.