ccopy_reg
_reconstructor
p0
(cMC_Perceptron
MC_Perceptron
p1
c__builtin__
object
p2
Ntp3
Rp4
(dp5
S'IT'
p6
I10
sS'w'
p7
(dp8
I8
(dp9
I1
F5.0
sI3
F-2.0
sI4
F1.0
sI5
F13.0
sI6
F8.0
sI7
F3.0
sI8
F-2.0
sI9
F-12.0
sI10
F0.0
sI11
F3.0
sI12
F1.0
ssI2
(dp10
I1
F2.0
sI3
F-3.0
sI4
F0.0
sI5
F10.0
sI6
F-34.0
sI7
F7.0
sI8
F10.0
sI9
F16.0
sI10
F9.0
sI11
F0.0
sI12
F0.0
ssI11
(dp11
I1
F-7.0
sI3
F5.0
sI4
F-1.0
sI5
F-23.0
sI6
F26.0
sI7
F-10.0
sI8
F-8.0
sI9
F-4.0
sI10
F-9.0
sI11
F-3.0
sI12
F-1.0
sssb.