ccopy_reg
_reconstructor
p0
(cMC_Perceptron
MC_Perceptron
p1
c__builtin__
object
p2
Ntp3
Rp4
(dp5
S'IT'
p6
I10
sS'w'
p7
(dp8
I0
(dp9
I1
F-0.2819560000000001
sI2
F0.587393
sI3
F0.24999799999999994
sI4
F0.31516000000000033
sI5
F3.0
sI6
F3.0
sI7
F3.0
sI8
F-2.0
sI9
F-2.0
sI10
F-3.0
ssI1
(dp10
I1
F0.2819560000000001
sI2
F-0.587393
sI3
F-0.24999799999999994
sI4
F-0.31516000000000033
sI5
F-3.0
sI6
F-3.0
sI7
F-3.0
sI8
F2.0
sI9
F2.0
sI10
F3.0
sssb.