ccopy_reg
_reconstructor
p0
(cMC_Perceptron
MC_Perceptron
p1
c__builtin__
object
p2
Ntp3
Rp4
(dp5
S'IT'
p6
I10
sS'w'
p7
(dp8
I0
(dp9
I1
F3.182598999999957
sI2
F-3.899483999999997
sI3
F-2.8429720000000627
sI4
F3.1473840000000304
sI5
F-4.048972000000031
sI6
F-10.094957999999973
sI7
F8.585520000000004
sI8
F-9.576458999999893
sI9
F2.3297589999999957
sI10
F9.281201999999976
sI11
F-0.33794699999996203
sI12
F-1.6315730000000217
sI13
F8.609039000000012
sI14
F4.639360000000038
sI15
F1.560763999999995
sI16
F-11.900402999999969
sI17
F1.6633349999999818
sI18
F0.014079000000040885
sI19
F6.447035999999999
sI20
F-5.018763000000025
sI21
F-3.1903229999999922
sI22
F-0.36019200000001095
sI23
F4.845426999999999
sI24
F4.074346000000019
sI25
F3.7588219999999986
sI26
F-6.898292000000057
sI27
F-6.58528300000002
sI28
F-9.427362000000013
sI29
F-0.8401820000000203
sI30
F-11.718205000000022
sI31
F-10.882774000000033
sI32
F-7.0368679999999735
sI33
F1.4072950000000317
sI34
F-0.39837400000005163
sI35
F-3.958454000000032
sI36
F2.2560699999999843
sI37
F-4.1820619999999655
sI38
F-2.7960950000000135
sI39
F-0.9830639999999771
sI40
F-10.857415000000017
sI41
F-3.1291720000000365
sI42
F-4.681378000000015
sI43
F-0.24211999999996037
sI44
F3.4981209999999794
sI45
F13.511370000000007
sI46
F-8.641813000000006
sI47
F1.368184999999979
sI48
F0.43422500000007913
sI49
F5.1128200000001005
sI50
F-2.419666000000014
sI51
F-9.448371999999974
sI52
F-11.439359999999988
sI53
F14.513897999999994
sI54
F8.11139800000001
sI55
F2.6455610000000185
sI56
F-1.9367449999999191
sI57
F-2.859133999999987
sI58
F1.5376440000000238
sI59
F1.569203999999984
sI60
F0.8257900000000273
sI61
F-0.4735800000000361
sI62
F1.2585580000000196
sI63
F-12.25356399999994
sI64
F-5.377773000000026
sI65
F2.087657000000018
sI66
F-5.031023999999977
sI67
F1.1822460000000006
sI68
F4.260952000000035
sI69
F7.238577999999987
sI70
F0.07653300000000167
sI71
F1.6151240000000007
sI72
F0.8545379999999849
sI73
F-3.4415980000000324
sI74
F9.528523000000057
sI75
F-3.192136000000023
sI76
F1.1423760000000074
sI77
F1.3645269999999858
sI78
F3.7615290000000496
sI79
F-2.8972480000000354
sI80
F-3.5303000000000093
sI81
F-2.370946999999994
sI82
F3.1313879999999976
sI83
F-3.722978000000042
sI84
F-2.4435629999999877
sI85
F8.615053000000023
sI86
F-3.335799000000005
sI87
F4.335053999999978
sI88
F-2.346026999999981
sI89
F3.334541000000016
sI90
F0.04063899999999421
sI91
F-10.298119999999956
sI92
F-3.6165279999999567
sI93
F-9.193063999999994
sI94
F-1.012460000000014
ssI1
(dp10
I1
F-3.182598999999957
sI2
F3.899483999999997
sI3
F2.8429720000000627
sI4
F-3.1473840000000304
sI5
F4.048972000000031
sI6
F10.094957999999973
sI7
F-8.585520000000004
sI8
F9.576458999999893
sI9
F-2.3297589999999957
sI10
F-9.281201999999976
sI11
F0.33794699999996203
sI12
F1.6315730000000217
sI13
F-8.609039000000012
sI14
F-4.639360000000038
sI15
F-1.560763999999995
sI16
F11.900402999999969
sI17
F-1.6633349999999818
sI18
F-0.014079000000040885
sI19
F-6.447035999999999
sI20
F5.018763000000025
sI21
F3.1903229999999922
sI22
F0.36019200000001095
sI23
F-4.845426999999999
sI24
F-4.074346000000019
sI25
F-3.7588219999999986
sI26
F6.898292000000057
sI27
F6.58528300000002
sI28
F9.427362000000013
sI29
F0.8401820000000203
sI30
F11.718205000000022
sI31
F10.882774000000033
sI32
F7.0368679999999735
sI33
F-1.4072950000000317
sI34
F0.39837400000005163
sI35
F3.958454000000032
sI36
F-2.2560699999999843
sI37
F4.1820619999999655
sI38
F2.7960950000000135
sI39
F0.9830639999999771
sI40
F10.857415000000017
sI41
F3.1291720000000365
sI42
F4.681378000000015
sI43
F0.24211999999996037
sI44
F-3.4981209999999794
sI45
F-13.511370000000007
sI46
F8.641813000000006
sI47
F-1.368184999999979
sI48
F-0.43422500000007913
sI49
F-5.1128200000001005
sI50
F2.419666000000014
sI51
F9.448371999999974
sI52
F11.439359999999988
sI53
F-14.513897999999994
sI54
F-8.11139800000001
sI55
F-2.6455610000000185
sI56
F1.9367449999999191
sI57
F2.859133999999987
sI58
F-1.5376440000000238
sI59
F-1.569203999999984
sI60
F-0.8257900000000273
sI61
F0.4735800000000361
sI62
F-1.2585580000000196
sI63
F12.25356399999994
sI64
F5.377773000000026
sI65
F-2.087657000000018
sI66
F5.031023999999977
sI67
F-1.1822460000000006
sI68
F-4.260952000000035
sI69
F-7.238577999999987
sI70
F-0.07653300000000167
sI71
F-1.6151240000000007
sI72
F-0.8545379999999849
sI73
F3.4415980000000324
sI74
F-9.528523000000057
sI75
F3.192136000000023
sI76
F-1.1423760000000074
sI77
F-1.3645269999999858
sI78
F-3.7615290000000496
sI79
F2.8972480000000354
sI80
F3.5303000000000093
sI81
F2.370946999999994
sI82
F-3.1313879999999976
sI83
F3.722978000000042
sI84
F2.4435629999999877
sI85
F-8.615053000000023
sI86
F3.335799000000005
sI87
F-4.335053999999978
sI88
F2.346026999999981
sI89
F-3.334541000000016
sI90
F-0.04063899999999421
sI91
F10.298119999999956
sI92
F3.6165279999999567
sI93
F9.193063999999994
sI94
F1.012460000000014
sssb.