ccopy_reg
_reconstructor
p0
(cMC_Perceptron
MC_Perceptron
p1
c__builtin__
object
p2
Ntp3
Rp4
(dp5
S'IT'
p6
I10
sS'w'
p7
(dp8
I0
(dp9
I1
F61.0
sI2
F-50.0
sI3
F747.0
sI4
F-0.33333333
sI5
F-1.3333333200000002
sI6
F124.33334312200012
sI7
F261.33244698600004
sI8
F87.61112797100006
sI9
F392.8601348969999
sI10
F-380.7777731519997
sI11
F-509.44444340999996
sI12
F169.44443163999975
sI13
F-802.3333454100006
sI14
F-386.0000038399998
sI15
F1650.6666680000014
sI16
F-1264.6666671499997
sI17
F-214.11113226000015
sI18
F94.49654134000006
sI19
F-536.7360900000003
ssI1
(dp10
I1
F-61.0
sI2
F50.0
sI3
F-747.0
sI4
F0.33333333
sI5
F1.3333333200000002
sI6
F-124.33334312200012
sI7
F-261.33244698600004
sI8
F-87.61112797100006
sI9
F-392.8601348969999
sI10
F380.7777731519997
sI11
F509.44444340999996
sI12
F-169.44443163999975
sI13
F802.3333454100006
sI14
F386.0000038399998
sI15
F-1650.6666680000014
sI16
F1264.6666671499997
sI17
F214.11113226000015
sI18
F-94.49654134000006
sI19
F536.7360900000003
sssb.